(dp0
S'event'
p1
I2955
sS'cute'
p2
I2607
sS'nigga'
p3
I2701
sS'liberal'
p4
I344
sS'tired'
p5
I1158
sS'feel'
p6
I1200
sS'share'
p7
I3146
sS'hair'
p8
I2346
sS'player'
p9
I894
sS'homie'
p10
I458
sS'sleep'
p11
I2393
sS'bitch'
p12
I1291
sS'dividend'
p13
I2941
sS'love'
p14
I5020
sS'girl'
p15
I1959
sS'hate'
p16
I2132
sS'check'
p17
I3791
sS'shit'
p18
I757
sS'ain\xe2\x80\x99t'
p19
I307
sS'open'
p20
I2904
sS'literally'
p21
I2907
sS'dude'
p22
I648
sS'click'
p23
I3048
sS'mate'
p24
I1898
sS'health'
p25
I3128
sS'bruh'
p26
I763
sS'\xf0\x9f\x98\xad\xf0\x9f\x98\xad'
p27
I859
sS'announce'
p28
I3059
sS'stock'
p29
I3731
sS'available'
p30
I3297
sS'info'
p31
I2614
sS'someone'
p32
I867
sS'babe'
p33
I1296
sS'capetown'
p34
I336
sS'dope'
p35
I296
sS'makeup'
p36
I1284
sS'update'
p37
I2821
sS'saskedchat'
p38
I334
sS'birthday'
p39
I1845
sS"ain't"
p40
I539
sS'giveaway'
p41
I2197
sS'student'
p42
I2862
sS'baby'
p43
I1212
sS'news'
p44
I8681
sS'cunt'
p45
I325
sS'boyfriend'
p46
I1294
sS'realtor'
p47
I323
sS'league'
p48
I485
sS'join'
p49
I7174
sS'hiring'
p50
I4126
sS'nowplaying'
p51
I5524
sS'gotta'
p52
I355
sS'sale'
p53
I4261
sS'dawg'
p54
I327
sS'honestly'
p55
I1399
sS'decent'
p56
I329
sS'report'
p57
I3350
sS'heartstone'
p58
I352
sS'wanna'
p59
I2717
sS'latest'
p60
I5258
s.